; Function Attrs: nounwind uwtable
define dso_local ptr @Curl_ip2addr(i32 noundef %0, ptr noundef readonly captures(none) %1, ptr noundef readonly captures(none) %2, i32 noundef %3) local_unnamed_addr #0 {
  %5 = tail call i64 @strlen(ptr noundef nonnull dereferenceable(1) %2) #9
  %6 = add i64 %5, 1
  switch i32 %0, label %29 [
    i32 2, label %8
    i32 10, label %7
  ]

7:                                                ; preds = %4
  br label %8

8:                                                ; preds = %4, %7
  %.035 = phi i64 [ 28, %7 ], [ 16, %4 ]
  %9 = load ptr, ptr @Curl_ccalloc, align 8, !tbaa !13
  %10 = add i64 %5, 49
  %11 = add i64 %10, %.035
  %12 = tail call ptr %9(i64 noundef 1, i64 noundef %11) #8
  %.not = icmp eq ptr %12, null
  br i1 %.not, label %29, label %13

13:                                               ; preds = %8
  %14 = getelementptr inbounds nuw i8, ptr %12, i64 48
  %15 = getelementptr inbounds nuw i8, ptr %12, i64 32
  store ptr %14, ptr %15, align 8, !tbaa !32
  %16 = getelementptr inbounds nuw i8, ptr %14, i64 %.035
  %17 = getelementptr inbounds nuw i8, ptr %12, i64 24
  store ptr %16, ptr %17, align 8, !tbaa !33
  tail call void @llvm.memcpy.p0.p0.i64(ptr nonnull align 1 %16, ptr nonnull align 1 %2, i64 %6, i1 false)
  %18 = getelementptr inbounds nuw i8, ptr %12, i64 4
  store i32 %0, ptr %18, align 4, !tbaa !26
  %19 = getelementptr inbounds nuw i8, ptr %12, i64 8
  store i32 1, ptr %19, align 8, !tbaa !28
  %20 = trunc nuw nsw i64 %.035 to i32
  %21 = getelementptr inbounds nuw i8, ptr %12, i64 16
  store i32 %20, ptr %21, align 8, !tbaa !31
  switch i32 %0, label %29 [
    i32 2, label %22
    i32 10, label %25
  ]

22:                                               ; preds = %13
  %23 = getelementptr inbounds nuw i8, ptr %12, i64 52
  %24 = load i32, ptr %1, align 1
  store i32 %24, ptr %23, align 4
  br label %.sink.split

25:                                               ; preds = %13
  %26 = getelementptr inbounds nuw i8, ptr %12, i64 56
  tail call void @llvm.memcpy.p0.p0.i64(ptr noundef nonnull align 4 dereferenceable(16) %26, ptr noundef nonnull align 1 dereferenceable(16) %1, i64 16, i1 false)
  br label %.sink.split

.sink.split:                                      ; preds = %25, %22
  %.sink = phi i16 [ 2, %22 ], [ 10, %25 ]
  store i16 %.sink, ptr %14, align 4, !tbaa !35
  %27 = trunc i32 %3 to i16
  %rev.i = tail call noundef i16 @llvm.bswap.i16(i16 %27)
  %28 = getelementptr inbounds nuw i8, ptr %12, i64 50
  store i16 %rev.i, ptr %28, align 2, !tbaa !35
  br label %29

29:                                               ; preds = %.sink.split, %13, %8, %4
  %.0 = phi ptr [ null, %4 ], [ null, %8 ], [ %12, %13 ], [ %12, %.sink.split ]
  ret ptr %.0
}